target datalayout = "e-m:e-p270:32:32-p271:32:32-p272:64:64-i64:64-i128:128-f80:128-n8:16:32:64-S128"
target triple = "x86_64-pc-linux-gnu"

%class.VirtualSpace = type { ptr, ptr, ptr, ptr, i8, i8, ptr, ptr, ptr, ptr, ptr, ptr, i64, i64, i64 }
%class.BitMap = type { ptr, i64 }
%class.ArchivePtrBitmapCleaner = type { %class.BitMapClosure, ptr, ptr, ptr, ptr, i64 }
%class.BitMapClosure = type { ptr }
%class.anon = type { ptr }
%"struct.BitMap::IterateInvoker" = type { i8 }

@_ZN16ArchivePtrMarker7_ptrmapE = hidden global ptr null, align 8
@_ZN16ArchivePtrMarker3_vsE = hidden global ptr null, align 8
@_ZN16ArchivePtrMarker10_compactedE = hidden global i8 0, align 1
@_ZTV23ArchivePtrBitmapCleaner = linkonce_odr hidden unnamed_addr constant { [3 x ptr] } { [3 x ptr] [ptr null, ptr null, ptr @_ZN23ArchivePtrBitmapCleaner6do_bitEm] }, comdat, align 8
@_ZTV13BitMapClosure = linkonce_odr hidden unnamed_addr constant { [3 x ptr] } { [3 x ptr] [ptr null, ptr null, ptr @__cxa_pure_virtual] }, comdat, align 8

; Function Attrs: mustprogress nounwind uwtable
define linkonce_odr hidden noundef i32 @_Z23count_trailing_zeros_64m(i64 noundef %0) #1 comdat {
  %2 = alloca i64, align 8
  store i64 %0, ptr %2, align 8
  %3 = load i64, ptr %2, align 8
  %4 = call i64 @llvm.cttz.i64(i64 %3, i1 true)
  %5 = trunc i64 %4 to i32
  ret i32 %5
}

; Function Attrs: mustprogress nounwind uwtable
define linkonce_odr hidden noundef i64 @_ZN6BitMap21raw_to_words_align_upEm(i64 noundef %0) #1 comdat align 2 {
  %2 = alloca i64, align 8
  store i64 %0, ptr %2, align 8
  %3 = load i64, ptr %2, align 8
  %4 = add i64 %3, 63
  %5 = call noundef i64 @_ZN6BitMap23raw_to_words_align_downEm(i64 noundef %4)
  ret i64 %5
}

; Function Attrs: mustprogress nounwind uwtable
define linkonce_odr hidden noundef i64 @_ZN6BitMap23raw_to_words_align_downEm(i64 noundef %0) #1 comdat align 2 {
  %2 = alloca i64, align 8
  store i64 %0, ptr %2, align 8
  %3 = load i64, ptr %2, align 8
  %4 = lshr i64 %3, 6
  ret i64 %4
}

; Function Attrs: mustprogress nounwind uwtable
define linkonce_odr hidden void @_ZNK6BitMap12verify_limitEm(ptr noundef nonnull align 8 dereferenceable(16) %0, i64 noundef %1) #1 comdat align 2 {
  %3 = alloca ptr, align 8
  %4 = alloca i64, align 8
  store ptr %0, ptr %3, align 8
  store i64 %1, ptr %4, align 8
  ret void
}

; Function Attrs: mustprogress nounwind uwtable
define linkonce_odr hidden noundef i32 @_Z20count_trailing_zerosImTnNSt9enable_ifIXcvbsr3std11is_integralIT_EE5valueEiE4typeELi0ETnNS0_IXcvblestS1_Lm8EEiE4typeELi0EEjS1_(i64 noundef %0) #1 comdat {
  %2 = alloca i64, align 8
  store i64 %0, ptr %2, align 8
  %3 = load i64, ptr %2, align 8
  %4 = call noundef i32 @_Z23count_trailing_zeros_64m(i64 noundef %3)
  ret i32 %4
}

; Function Attrs: mustprogress nounwind uwtable
define linkonce_odr hidden noundef i64 @_ZN6BitMap9bit_indexEm(i64 noundef %0) #1 comdat align 2 {
  %2 = alloca i64, align 8
  store i64 %0, ptr %2, align 8
  %3 = load i64, ptr %2, align 8
  %4 = shl i64 %3, 6
  ret i64 %4
}

; Function Attrs: mustprogress nounwind uwtable
define linkonce_odr hidden noundef i64 @_ZNK6BitMap17to_words_align_upEm(ptr noundef nonnull align 8 dereferenceable(16) %0, i64 noundef %1) #1 comdat align 2 {
  %3 = alloca ptr, align 8
  %4 = alloca i64, align 8
  store ptr %0, ptr %3, align 8
  store i64 %1, ptr %4, align 8
  %5 = load ptr, ptr %3, align 8
  %6 = load i64, ptr %4, align 8
  call void @_ZNK6BitMap12verify_limitEm(ptr noundef nonnull align 8 dereferenceable(16) %5, i64 noundef %6)
  %7 = load i64, ptr %4, align 8
  %8 = call noundef i64 @_ZN6BitMap21raw_to_words_align_upEm(i64 noundef %7)
  ret i64 %8
}

; Function Attrs: mustprogress nounwind uwtable
define linkonce_odr hidden noundef i64 @_ZN6BitMap11bit_in_wordEm(i64 noundef %0) #1 comdat align 2 {
  %2 = alloca i64, align 8
  store i64 %0, ptr %2, align 8
  %3 = load i64, ptr %2, align 8
  %4 = and i64 %3, 63
  ret i64 %4
}

; Function Attrs: mustprogress nounwind uwtable
define linkonce_odr hidden noundef i64 @_ZNK6BitMap12flipped_wordEmm(ptr noundef nonnull align 8 dereferenceable(16) %0, i64 noundef %1, i64 noundef %2) #1 comdat align 2 {
  %4 = alloca ptr, align 8
  %5 = alloca i64, align 8
  %6 = alloca i64, align 8
  store ptr %0, ptr %4, align 8
  store i64 %1, ptr %5, align 8
  store i64 %2, ptr %6, align 8
  %7 = load ptr, ptr %4, align 8
  %8 = getelementptr inbounds %class.BitMap, ptr %7, i32 0, i32 0
  %9 = load ptr, ptr %8, align 8
  %10 = load i64, ptr %5, align 8
  %11 = getelementptr inbounds i64, ptr %9, i64 %10
  %12 = load i64, ptr %11, align 8
  %13 = load i64, ptr %6, align 8
  %14 = xor i64 %12, %13
  ret i64 %14
}

; Function Attrs: mustprogress nounwind uwtable
define linkonce_odr hidden noundef i64 @_ZNK6BitMap19to_words_align_downEm(ptr noundef nonnull align 8 dereferenceable(16) %0, i64 noundef %1) #1 comdat align 2 {
  %3 = alloca ptr, align 8
  %4 = alloca i64, align 8
  store ptr %0, ptr %3, align 8
  store i64 %1, ptr %4, align 8
  %5 = load ptr, ptr %3, align 8
  %6 = load i64, ptr %4, align 8
  call void @_ZNK6BitMap12verify_limitEm(ptr noundef nonnull align 8 dereferenceable(16) %5, i64 noundef %6)
  %7 = load i64, ptr %4, align 8
  %8 = call noundef i64 @_ZN6BitMap23raw_to_words_align_downEm(i64 noundef %7)
  ret i64 %8
}

; Function Attrs: mustprogress nounwind uwtable
define linkonce_odr hidden void @_ZNK6BitMap12verify_rangeEmm(ptr noundef nonnull align 8 dereferenceable(16) %0, i64 noundef %1, i64 noundef %2) #1 comdat align 2 {
  %4 = alloca ptr, align 8
  %5 = alloca i64, align 8
  %6 = alloca i64, align 8
  store ptr %0, ptr %4, align 8
  store i64 %1, ptr %5, align 8
  store i64 %2, ptr %6, align 8
  ret void
}

; Function Attrs: mustprogress nounwind uwtable
define linkonce_odr hidden noundef zeroext i1 @_ZZNK6BitMap7iterateI23ArchivePtrBitmapCleanerEEbPT_mmENKUlmE_clEm(ptr noundef nonnull align 8 dereferenceable(8) %0, i64 noundef %1) #1 comdat align 2 {
  %3 = alloca ptr, align 8
  %4 = alloca i64, align 8
  store ptr %0, ptr %3, align 8
  store i64 %1, ptr %4, align 8
  %5 = load ptr, ptr %3, align 8
  %6 = getelementptr inbounds %class.anon, ptr %5, i32 0, i32 0
  %7 = load ptr, ptr %6, align 8
  %8 = load ptr, ptr %7, align 8
  %9 = load i64, ptr %4, align 8
  %10 = load ptr, ptr %8, align 8
  %11 = getelementptr inbounds ptr, ptr %10, i64 0
  %12 = load ptr, ptr %11, align 8
  %13 = call noundef zeroext i1 %12(ptr noundef nonnull align 8 dereferenceable(48) %8, i64 noundef %9)
  ret i1 %13
}

; Function Attrs: mustprogress nounwind uwtable
define linkonce_odr hidden noundef i64 @_ZNK6BitMap19find_first_bit_implILm0ELb0EEEmmm(ptr noundef nonnull align 8 dereferenceable(16) %0, i64 noundef %1, i64 noundef %2) #1 comdat align 2 {
  %4 = alloca i64, align 8
  %5 = alloca ptr, align 8
  %6 = alloca i64, align 8
  %7 = alloca i64, align 8
  %8 = alloca i64, align 8
  %9 = alloca i64, align 8
  %10 = alloca i64, align 8
  %11 = alloca i64, align 8
  %12 = alloca i64, align 8
  store ptr %0, ptr %5, align 8
  store i64 %1, ptr %6, align 8
  store i64 %2, ptr %7, align 8
  %13 = load ptr, ptr %5, align 8
  %14 = load i64, ptr %6, align 8
  %15 = load i64, ptr %7, align 8
  call void @_ZNK6BitMap12verify_rangeEmm(ptr noundef nonnull align 8 dereferenceable(16) %13, i64 noundef %14, i64 noundef %15)
  %16 = load i64, ptr %6, align 8
  %17 = load i64, ptr %7, align 8
  %18 = icmp ult i64 %16, %17
  br i1 %18, label %19, label %70

19:                                               ; preds = %3
  %20 = load i64, ptr %6, align 8
  %21 = call noundef i64 @_ZNK6BitMap19to_words_align_downEm(ptr noundef nonnull align 8 dereferenceable(16) %13, i64 noundef %20)
  store i64 %21, ptr %8, align 8
  %22 = load i64, ptr %8, align 8
  %23 = call noundef i64 @_ZNK6BitMap12flipped_wordEmm(ptr noundef nonnull align 8 dereferenceable(16) %13, i64 noundef %22, i64 noundef 0)
  %24 = load i64, ptr %6, align 8
  %25 = call noundef i64 @_ZN6BitMap11bit_in_wordEm(i64 noundef %24)
  %26 = lshr i64 %23, %25
  store i64 %26, ptr %9, align 8
  %27 = load i64, ptr %9, align 8
  %28 = and i64 %27, 1
  %29 = icmp ne i64 %28, 0
  br i1 %29, label %30, label %32

30:                                               ; preds = %19
  %31 = load i64, ptr %6, align 8
  store i64 %31, ptr %4, align 8
  br label %72

32:                                               ; preds = %19
  %33 = load i64, ptr %6, align 8
  store i64 %33, ptr %10, align 8
  %34 = load i64, ptr %9, align 8
  %35 = icmp eq i64 %34, 0
  br i1 %35, label %36, label %54

36:                                               ; preds = %32
  %37 = load i64, ptr %7, align 8
  %38 = call noundef i64 @_ZNK6BitMap17to_words_align_upEm(ptr noundef nonnull align 8 dereferenceable(16) %13, i64 noundef %37)
  store i64 %38, ptr %11, align 8
  br label %39

39:                                               ; preds = %52, %36
  %40 = load i64, ptr %8, align 8
  %41 = add i64 %40, 1
  store i64 %41, ptr %8, align 8
  %42 = load i64, ptr %11, align 8
  %43 = icmp ult i64 %41, %42
  br i1 %43, label %44, label %53

44:                                               ; preds = %39
  %45 = load i64, ptr %8, align 8
  %46 = call noundef i64 @_ZNK6BitMap12flipped_wordEmm(ptr noundef nonnull align 8 dereferenceable(16) %13, i64 noundef %45, i64 noundef 0)
  store i64 %46, ptr %9, align 8
  %47 = load i64, ptr %9, align 8
  %48 = icmp ne i64 %47, 0
  br i1 %48, label %49, label %52

49:                                               ; preds = %44
  %50 = load i64, ptr %8, align 8
  %51 = call noundef i64 @_ZN6BitMap9bit_indexEm(i64 noundef %50)
  store i64 %51, ptr %10, align 8
  br label %53

52:                                               ; preds = %44
  br label %39, !llvm.loop !11

53:                                               ; preds = %49, %39
  br label %54

54:                                               ; preds = %53, %32
  %55 = load i64, ptr %9, align 8
  %56 = icmp ne i64 %55, 0
  br i1 %56, label %57, label %69

57:                                               ; preds = %54
  %58 = load i64, ptr %10, align 8
  %59 = load i64, ptr %9, align 8
  %60 = call noundef i32 @_Z20count_trailing_zerosImTnNSt9enable_ifIXcvbsr3std11is_integralIT_EE5valueEiE4typeELi0ETnNS0_IXcvblestS1_Lm8EEiE4typeELi0EEjS1_(i64 noundef %59)
  %61 = zext i32 %60 to i64
  %62 = add i64 %58, %61
  store i64 %62, ptr %12, align 8
  %63 = load i64, ptr %12, align 8
  %64 = load i64, ptr %7, align 8
  %65 = icmp ult i64 %63, %64
  br i1 %65, label %66, label %68

66:                                               ; preds = %57
  %67 = load i64, ptr %12, align 8
  store i64 %67, ptr %4, align 8
  br label %72

68:                                               ; preds = %57
  br label %69

69:                                               ; preds = %68, %54
  br label %70

70:                                               ; preds = %69, %3
  %71 = load i64, ptr %7, align 8
  store i64 %71, ptr %4, align 8
  br label %72

72:                                               ; preds = %70, %66, %30
  %73 = load i64, ptr %4, align 8
  ret i64 %73
}

; Function Attrs: mustprogress nounwind uwtable
define linkonce_odr hidden noundef zeroext i1 @_ZNK6BitMap14IterateInvokerIbEclIZNKS_7iterateI23ArchivePtrBitmapCleanerEEbPT_mmEUlmE_EEbS5_m(ptr noundef nonnull align 1 dereferenceable(1) %0, ptr %1, i64 noundef %2) #1 comdat align 2 {
  %4 = alloca %class.anon, align 8
  %5 = alloca ptr, align 8
  %6 = alloca i64, align 8
  %7 = getelementptr inbounds %class.anon, ptr %4, i32 0, i32 0
  store ptr %1, ptr %7, align 8
  store ptr %0, ptr %5, align 8
  store i64 %2, ptr %6, align 8
  %8 = load i64, ptr %6, align 8
  %9 = call noundef zeroext i1 @_ZZNK6BitMap7iterateI23ArchivePtrBitmapCleanerEEbPT_mmENKUlmE_clEm(ptr noundef nonnull align 8 dereferenceable(8) %4, i64 noundef %8)
  ret i1 %9
}

; Function Attrs: mustprogress nounwind uwtable
define linkonce_odr hidden noundef i64 @_ZNK6BitMap18find_first_set_bitEmm(ptr noundef nonnull align 8 dereferenceable(16) %0, i64 noundef %1, i64 noundef %2) #1 comdat align 2 {
  %4 = alloca ptr, align 8
  %5 = alloca i64, align 8
  %6 = alloca i64, align 8
  store ptr %0, ptr %4, align 8
  store i64 %1, ptr %5, align 8
  store i64 %2, ptr %6, align 8
  %7 = load ptr, ptr %4, align 8
  %8 = load i64, ptr %5, align 8
  %9 = load i64, ptr %6, align 8
  %10 = call noundef i64 @_ZNK6BitMap19find_first_bit_implILm0ELb0EEEmmm(ptr noundef nonnull align 8 dereferenceable(16) %7, i64 noundef %8, i64 noundef %9)
  ret i64 %10
}

; Function Attrs: mustprogress nounwind uwtable
define linkonce_odr hidden noundef zeroext i1 @_ZNK6BitMap7iterateIZNKS_7iterateI23ArchivePtrBitmapCleanerEEbPT_mmEUlmE_EEbS3_mm(ptr noundef nonnull align 8 dereferenceable(16) %0, ptr %1, i64 noundef %2, i64 noundef %3) #1 comdat align 2 {
  %5 = alloca i1, align 1
  %6 = alloca %class.anon, align 8
  %7 = alloca ptr, align 8
  %8 = alloca i64, align 8
  %9 = alloca i64, align 8
  %10 = alloca %"struct.BitMap::IterateInvoker", align 1
  %11 = alloca i64, align 8
  %12 = alloca %class.anon, align 8
  %13 = getelementptr inbounds %class.anon, ptr %6, i32 0, i32 0
  store ptr %1, ptr %13, align 8
  store ptr %0, ptr %7, align 8
  store i64 %2, ptr %8, align 8
  store i64 %3, ptr %9, align 8
  %14 = load ptr, ptr %7, align 8
  call void @llvm.memset.p0.i64(ptr align 1 %10, i8 0, i64 1, i1 false)
  %15 = load i64, ptr %8, align 8
  store i64 %15, ptr %11, align 8
  br label %16

16:                                               ; preds = %33, %4
  br i1 true, label %17, label %36

17:                                               ; preds = %16
  %18 = load i64, ptr %11, align 8
  %19 = load i64, ptr %9, align 8
  %20 = call noundef i64 @_ZNK6BitMap18find_first_set_bitEmm(ptr noundef nonnull align 8 dereferenceable(16) %14, i64 noundef %18, i64 noundef %19)
  store i64 %20, ptr %11, align 8
  %21 = load i64, ptr %11, align 8
  %22 = load i64, ptr %9, align 8
  %23 = icmp uge i64 %21, %22
  br i1 %23, label %24, label %25

24:                                               ; preds = %17
  store i1 true, ptr %5, align 1
  br label %37

25:                                               ; preds = %17
  call void @llvm.memcpy.p0.p0.i64(ptr align 8 %12, ptr align 8 %6, i64 8, i1 false)
  %26 = load i64, ptr %11, align 8
  %27 = getelementptr inbounds %class.anon, ptr %12, i32 0, i32 0
  %28 = load ptr, ptr %27, align 8
  %29 = call noundef zeroext i1 @_ZNK6BitMap14IterateInvokerIbEclIZNKS_7iterateI23ArchivePtrBitmapCleanerEEbPT_mmEUlmE_EEbS5_m(ptr noundef nonnull align 1 dereferenceable(1) %10, ptr %28, i64 noundef %26)
  br i1 %29, label %31, label %30

30:                                               ; preds = %25
  store i1 false, ptr %5, align 1
  br label %37

31:                                               ; preds = %25
  br label %32

32:                                               ; preds = %31
  br label %33

33:                                               ; preds = %32
  %34 = load i64, ptr %11, align 8
  %35 = add i64 %34, 1
  store i64 %35, ptr %11, align 8
  br label %16, !llvm.loop !10

36:                                               ; preds = %16
  call void @llvm.trap()
  unreachable

37:                                               ; preds = %30, %24
  %38 = load i1, ptr %5, align 1
  ret i1 %38
}

; Function Attrs: mustprogress nounwind uwtable
define linkonce_odr hidden noundef zeroext i1 @_ZNK6BitMap7iterateI23ArchivePtrBitmapCleanerEEbPT_mm(ptr noundef nonnull align 8 dereferenceable(16) %0, ptr noundef %1, i64 noundef %2, i64 noundef %3) #1 comdat align 2 {
  %5 = alloca ptr, align 8
  %6 = alloca ptr, align 8
  %7 = alloca i64, align 8
  %8 = alloca i64, align 8
  %9 = alloca %class.anon, align 8
  %10 = alloca %class.anon, align 8
  store ptr %0, ptr %5, align 8
  store ptr %1, ptr %6, align 8
  store i64 %2, ptr %7, align 8
  store i64 %3, ptr %8, align 8
  %11 = load ptr, ptr %5, align 8
  %12 = getelementptr inbounds %class.anon, ptr %9, i32 0, i32 0
  store ptr %6, ptr %12, align 8
  call void @llvm.memcpy.p0.p0.i64(ptr align 8 %10, ptr align 8 %9, i64 8, i1 false)
  %13 = load i64, ptr %7, align 8
  %14 = load i64, ptr %8, align 8
  %15 = getelementptr inbounds %class.anon, ptr %10, i32 0, i32 0
  %16 = load ptr, ptr %15, align 8
  %17 = call noundef zeroext i1 @_ZNK6BitMap7iterateIZNKS_7iterateI23ArchivePtrBitmapCleanerEEbPT_mmEUlmE_EEbS3_mm(ptr noundef nonnull align 8 dereferenceable(16) %11, ptr %16, i64 noundef %13, i64 noundef %14)
  ret i1 %17
}

; Function Attrs: mustprogress nounwind uwtable
define linkonce_odr hidden noundef i64 @_ZNK6BitMap4sizeEv(ptr noundef nonnull align 8 dereferenceable(16) %0) #1 comdat align 2 {
  %2 = alloca ptr, align 8
  store ptr %0, ptr %2, align 8
  %3 = load ptr, ptr %2, align 8
  %4 = getelementptr inbounds %class.BitMap, ptr %3, i32 0, i32 1
  %5 = load i64, ptr %4, align 8
  ret i64 %5
}

; Function Attrs: mustprogress nounwind uwtable
define linkonce_odr hidden void @_ZN13BitMapClosureC2Ev(ptr noundef nonnull align 8 dereferenceable(8) %0) unnamed_addr #1 comdat align 2 {
  %2 = alloca ptr, align 8
  store ptr %0, ptr %2, align 8
  %3 = load ptr, ptr %2, align 8
  store ptr getelementptr inbounds inrange(-16, 8) ({ [3 x ptr] }, ptr @_ZTV13BitMapClosure, i32 0, i32 0, i32 2), ptr %3, align 8
  ret void
}

; Function Attrs: mustprogress nounwind uwtable
define linkonce_odr hidden noundef ptr @_ZNK12VirtualSpace3lowEv(ptr noundef nonnull align 8 dereferenceable(112) %0) #1 comdat align 2 {
  %2 = alloca ptr, align 8
  store ptr %0, ptr %2, align 8
  %3 = load ptr, ptr %2, align 8
  %4 = getelementptr inbounds %class.VirtualSpace, ptr %3, i32 0, i32 2
  %5 = load ptr, ptr %4, align 8
  ret ptr %5
}

; Function Attrs: mustprogress nounwind uwtable
define hidden void @_ZN16ArchivePtrMarker7compactEm(i64 noundef %0) #1 align 2 {
  %2 = alloca i64, align 8
  store i64 %0, ptr %2, align 8
  %3 = load ptr, ptr @_ZN16ArchivePtrMarker7_ptrmapE, align 8
  %4 = load i64, ptr %2, align 8
  %5 = add i64 %4, 1
  call void @_ZN14GrowableBitMapI11CHeapBitMapE6resizeEmb(ptr noundef nonnull align 8 dereferenceable(16) %3, i64 noundef %5, i1 noundef zeroext true)
  store i8 1, ptr @_ZN16ArchivePtrMarker10_compactedE, align 1
  ret void
}

; Function Attrs: mustprogress nounwind uwtable
define linkonce_odr hidden noundef i64 @_ZNK23ArchivePtrBitmapCleaner19max_non_null_offsetEv(ptr noundef nonnull align 8 dereferenceable(48) %0) #1 comdat align 2 {
  %2 = alloca ptr, align 8
  store ptr %0, ptr %2, align 8
  %3 = load ptr, ptr %2, align 8
  %4 = getelementptr inbounds %class.ArchivePtrBitmapCleaner, ptr %3, i32 0, i32 5
  %5 = load i64, ptr %4, align 8
  ret i64 %5
}

; Function Attrs: mustprogress nounwind uwtable
define linkonce_odr hidden noundef zeroext i1 @_ZNK6BitMap7iterateI23ArchivePtrBitmapCleanerEEbPT_(ptr noundef nonnull align 8 dereferenceable(16) %0, ptr noundef %1) #1 comdat align 2 {
  %3 = alloca ptr, align 8
  %4 = alloca ptr, align 8
  store ptr %0, ptr %3, align 8
  store ptr %1, ptr %4, align 8
  %5 = load ptr, ptr %3, align 8
  %6 = load ptr, ptr %4, align 8
  %7 = call noundef i64 @_ZNK6BitMap4sizeEv(ptr noundef nonnull align 8 dereferenceable(16) %5)
  %8 = call noundef zeroext i1 @_ZNK6BitMap7iterateI23ArchivePtrBitmapCleanerEEbPT_mm(ptr noundef nonnull align 8 dereferenceable(16) %5, ptr noundef %6, i64 noundef 0, i64 noundef %7)
  ret i1 %8
}

; Function Attrs: mustprogress nounwind uwtable
define linkonce_odr hidden void @_ZN23ArchivePtrBitmapCleanerC2EP11CHeapBitMapPPhS2_S2_(ptr noundef nonnull align 8 dereferenceable(48) %0, ptr noundef %1, ptr noundef %2, ptr noundef %3, ptr noundef %4) unnamed_addr #1 comdat align 2 {
  %6 = alloca ptr, align 8
  %7 = alloca ptr, align 8
  %8 = alloca ptr, align 8
  %9 = alloca ptr, align 8
  %10 = alloca ptr, align 8
  store ptr %0, ptr %6, align 8
  store ptr %1, ptr %7, align 8
  store ptr %2, ptr %8, align 8
  store ptr %3, ptr %9, align 8
  store ptr %4, ptr %10, align 8
  %11 = load ptr, ptr %6, align 8
  call void @_ZN13BitMapClosureC2Ev(ptr noundef nonnull align 8 dereferenceable(8) %11) #10
  store ptr getelementptr inbounds inrange(-16, 8) ({ [3 x ptr] }, ptr @_ZTV23ArchivePtrBitmapCleaner, i32 0, i32 0, i32 2), ptr %11, align 8
  %12 = getelementptr inbounds %class.ArchivePtrBitmapCleaner, ptr %11, i32 0, i32 1
  %13 = load ptr, ptr %7, align 8
  store ptr %13, ptr %12, align 8
  %14 = getelementptr inbounds %class.ArchivePtrBitmapCleaner, ptr %11, i32 0, i32 2
  %15 = load ptr, ptr %8, align 8
  store ptr %15, ptr %14, align 8
  %16 = getelementptr inbounds %class.ArchivePtrBitmapCleaner, ptr %11, i32 0, i32 3
  %17 = load ptr, ptr %9, align 8
  store ptr %17, ptr %16, align 8
  %18 = getelementptr inbounds %class.ArchivePtrBitmapCleaner, ptr %11, i32 0, i32 4
  %19 = load ptr, ptr %10, align 8
  store ptr %19, ptr %18, align 8
  %20 = getelementptr inbounds %class.ArchivePtrBitmapCleaner, ptr %11, i32 0, i32 5
  store i64 0, ptr %20, align 8
  ret void
}

; Function Attrs: mustprogress nounwind uwtable
define linkonce_odr hidden noundef ptr @_ZN16ArchivePtrMarker8ptr_baseEv() #1 comdat align 2 {
  %1 = load ptr, ptr @_ZN16ArchivePtrMarker3_vsE, align 8
  %2 = call noundef ptr @_ZNK12VirtualSpace3lowEv(ptr noundef nonnull align 8 dereferenceable(112) %1)
  ret ptr %2
}

; Function Attrs: mustprogress nounwind uwtable
define hidden void @_ZN16ArchivePtrMarker7compactEPhS0_(ptr noundef %0, ptr noundef %1) #1 align 2 {
  %3 = alloca ptr, align 8
  %4 = alloca ptr, align 8
  %5 = alloca %class.ArchivePtrBitmapCleaner, align 8
  store ptr %0, ptr %3, align 8
  store ptr %1, ptr %4, align 8
  %6 = load ptr, ptr @_ZN16ArchivePtrMarker7_ptrmapE, align 8
  %7 = call noundef ptr @_ZN16ArchivePtrMarker8ptr_baseEv()
  %8 = load ptr, ptr %3, align 8
  %9 = load ptr, ptr %4, align 8
  call void @_ZN23ArchivePtrBitmapCleanerC2EP11CHeapBitMapPPhS2_S2_(ptr noundef nonnull align 8 dereferenceable(48) %5, ptr noundef %6, ptr noundef %7, ptr noundef %8, ptr noundef %9)
  %10 = load ptr, ptr @_ZN16ArchivePtrMarker7_ptrmapE, align 8
  %11 = call noundef zeroext i1 @_ZNK6BitMap7iterateI23ArchivePtrBitmapCleanerEEbPT_(ptr noundef nonnull align 8 dereferenceable(16) %10, ptr noundef %5)
  %12 = call noundef i64 @_ZNK23ArchivePtrBitmapCleaner19max_non_null_offsetEv(ptr noundef nonnull align 8 dereferenceable(48) %5)
  call void @_ZN16ArchivePtrMarker7compactEm(i64 noundef %12)
  ret void
}