; Function Attrs: mustprogress nounwind uwtable
define hidden void @_ZN16ArchivePtrMarker7compactEPhS0_(ptr noundef %0, ptr noundef %1) local_unnamed_addr #0 align 2 {
  %3 = alloca %class.ArchivePtrBitmapCleaner, align 8
  %4 = load ptr, ptr @_ZN16ArchivePtrMarker7_ptrmapE, align 8
  %5 = load ptr, ptr @_ZN16ArchivePtrMarker3_vsE, align 8
  %6 = getelementptr inbounds i8, ptr %5, i64 16
  %7 = load ptr, ptr %6, align 8
  store ptr getelementptr inbounds inrange(-16, 8) (i8, ptr @_ZTV23ArchivePtrBitmapCleaner, i64 16), ptr %3, align 8
  %8 = getelementptr inbounds i8, ptr %3, i64 8
  store ptr %4, ptr %8, align 8
  %9 = getelementptr inbounds i8, ptr %3, i64 16
  store ptr %7, ptr %9, align 8
  %10 = getelementptr inbounds i8, ptr %3, i64 24
  store ptr %0, ptr %10, align 8
  %11 = getelementptr inbounds i8, ptr %3, i64 32
  store ptr %1, ptr %11, align 8
  %12 = getelementptr inbounds i8, ptr %3, i64 40
  store i64 0, ptr %12, align 8
  %13 = getelementptr inbounds i8, ptr %4, i64 8
  %14 = load i64, ptr %13, align 8
  %.not.i = icmp eq i64 %14, 0
  br i1 %.not.i, label %_ZNK6BitMap7iterateI23ArchivePtrBitmapCleanerEEbPT_.exit, label %.lr.ph.i.i.i

.lr.ph.i.i.i:                                     ; preds = %2
  %15 = add i64 %14, 63
  %16 = lshr i64 %15, 6
  br label %17

17:                                               ; preds = %38, %.lr.ph.i.i.i
  %.0917.i.i.i = phi i64 [ 0, %.lr.ph.i.i.i ], [ %42, %38 ]
  %18 = lshr i64 %.0917.i.i.i, 6
  %19 = load ptr, ptr %4, align 8
  %20 = getelementptr inbounds i64, ptr %19, i64 %18
  %21 = load i64, ptr %20, align 8
  %22 = and i64 %.0917.i.i.i, 63
  %23 = lshr i64 %21, %22
  %24 = and i64 %23, 1
  %.not.i.i.i.i.i = icmp eq i64 %24, 0
  br i1 %.not.i.i.i.i.i, label %25, label %_ZNK6BitMap18find_first_set_bitEmm.exit.i.i.i

25:                                               ; preds = %17
  %26 = icmp eq i64 %23, 0
  br i1 %26, label %.preheader.i.i.i, label %34

.preheader.i.i.i:                                 ; preds = %25, %29
  %.025.i.i.i.i.i = phi i64 [ %27, %29 ], [ %18, %25 ]
  %27 = add nuw nsw i64 %.025.i.i.i.i.i, 1
  %28 = icmp ult i64 %27, %16
  br i1 %28, label %29, label %_ZNK6BitMap7iterateI23ArchivePtrBitmapCleanerEEbPT_.exit

29:                                               ; preds = %.preheader.i.i.i
  %30 = getelementptr inbounds i64, ptr %19, i64 %27
  %31 = load i64, ptr %30, align 8
  %.not36.i.i.i.i.i = icmp eq i64 %31, 0
  br i1 %.not36.i.i.i.i.i, label %.preheader.i.i.i, label %32, !llvm.loop !9

32:                                               ; preds = %29
  %33 = shl i64 %27, 6
  br label %34

34:                                               ; preds = %32, %25
  %.1.ph.i.i.i.i.i = phi i64 [ %23, %25 ], [ %31, %32 ]
  %.026.ph.i.i.i.i.i = phi i64 [ %.0917.i.i.i, %25 ], [ %33, %32 ]
  %35 = call range(i64 0, 65) i64 @llvm.cttz.i64(i64 %.1.ph.i.i.i.i.i, i1 true)
  %36 = add i64 %.026.ph.i.i.i.i.i, %35
  %37 = icmp ult i64 %36, %14
  br i1 %37, label %_ZNK6BitMap18find_first_set_bitEmm.exit.i.i.i, label %_ZNK6BitMap7iterateI23ArchivePtrBitmapCleanerEEbPT_.exit

_ZNK6BitMap18find_first_set_bitEmm.exit.i.i.i:    ; preds = %34, %17
  %.0.i.i.i.i.i = phi i64 [ %.0917.i.i.i, %17 ], [ %36, %34 ]
  %.not.not.i.i.i = icmp ult i64 %.0.i.i.i.i.i, %14
  br i1 %.not.not.i.i.i, label %38, label %_ZNK6BitMap7iterateI23ArchivePtrBitmapCleanerEEbPT_.exit

38:                                               ; preds = %_ZNK6BitMap18find_first_set_bitEmm.exit.i.i.i
  %39 = load ptr, ptr %3, align 8
  %40 = load ptr, ptr %39, align 8
  %41 = call noundef zeroext i1 %40(ptr noundef nonnull align 8 dereferenceable(48) %3, i64 noundef %.0.i.i.i.i.i) #10
  %42 = add nuw i64 %.0.i.i.i.i.i, 1
  %43 = icmp ult i64 %42, %14
  %or.cond = select i1 %41, i1 %43, i1 false
  br i1 %or.cond, label %17, label %_ZNK6BitMap7iterateI23ArchivePtrBitmapCleanerEEbPT_.exit, !llvm.loop !10

_ZNK6BitMap7iterateI23ArchivePtrBitmapCleanerEEbPT_.exit: ; preds = %34, %_ZNK6BitMap18find_first_set_bitEmm.exit.i.i.i, %38, %.preheader.i.i.i, %2
  %44 = load i64, ptr %12, align 8
  %45 = load ptr, ptr @_ZN16ArchivePtrMarker7_ptrmapE, align 8
  %46 = add i64 %44, 1
  call void @_ZN14GrowableBitMapI11CHeapBitMapE6resizeEmb(ptr noundef nonnull align 8 dereferenceable(16) %45, i64 noundef %46, i1 noundef zeroext true) #10
  store i8 1, ptr @_ZN16ArchivePtrMarker10_compactedE, align 1
  ret void
}